; Function Attrs: nounwind uwtable
define internal fastcc void @opgen_FUNC(ptr noundef captures(none) %0, ptr noundef %1, ptr noundef %2) unnamed_addr #1 {
  %4 = getelementptr inbounds nuw i8, ptr %0, i64 64
  %5 = load ptr, ptr %4, align 8, !tbaa !62
  %6 = getelementptr inbounds nuw i8, ptr %0, i64 56
  %7 = load ptr, ptr %6, align 8, !tbaa !63
  %8 = ptrtoint ptr %5 to i64
  %9 = ptrtoint ptr %7 to i64
  %10 = sub i64 %8, %9
  %11 = icmp ult i64 %10, 8
  br i1 %11, label %12, label %openc_alloc_space.exit.i

12:                                               ; preds = %3
  %13 = getelementptr inbounds nuw i8, ptr %0, i64 48
  %14 = load ptr, ptr %13, align 8, !tbaa !64
  %15 = ptrtoint ptr %14 to i64
  %16 = sub i64 %8, %15
  %17 = icmp eq ptr %5, %14
  %18 = shl i64 %16, 1
  %19 = select i1 %17, i64 1024, i64 %18
  %20 = tail call ptr @CRYPTO_realloc(ptr noundef %14, i64 noundef %19, ptr noundef nonnull @.str.42, i32 noundef 262) #12
  %21 = tail call i32 @test_ptr(ptr noundef nonnull @.str.42, i32 noundef 263, ptr noundef nonnull @.str.43, ptr noundef %20) #12
  %.not.i.i = icmp eq i32 %21, 0
  br i1 %.not.i.i, label %openc_u64.exit, label %22

22:                                               ; preds = %12
  %23 = sub i64 %9, %15
  store ptr %20, ptr %13, align 8, !tbaa !64
  %24 = getelementptr inbounds nuw i8, ptr %20, i64 %23
  %25 = getelementptr inbounds nuw i8, ptr %20, i64 %19
  store ptr %25, ptr %4, align 8, !tbaa !62
  br label %openc_alloc_space.exit.i

openc_alloc_space.exit.i:                         ; preds = %22, %3
  %26 = phi ptr [ %24, %22 ], [ %7, %3 ]
  %27 = getelementptr inbounds nuw i8, ptr %26, i64 8
  store ptr %27, ptr %6, align 8, !tbaa !63
  %28 = icmp eq ptr %26, null
  br i1 %28, label %openc_u64.exit, label %29

29:                                               ; preds = %openc_alloc_space.exit.i
  store i64 6, ptr %26, align 1
  br label %openc_u64.exit

openc_u64.exit:                                   ; preds = %12, %openc_alloc_space.exit.i, %29
  %30 = load ptr, ptr %4, align 8, !tbaa !62
  %31 = load ptr, ptr %6, align 8, !tbaa !63
  %32 = ptrtoint ptr %30 to i64
  %33 = ptrtoint ptr %31 to i64
  %34 = sub i64 %32, %33
  %35 = icmp ult i64 %34, 8
  br i1 %35, label %36, label %openc_alloc_space.exit.i5

36:                                               ; preds = %openc_u64.exit
  %37 = getelementptr inbounds nuw i8, ptr %0, i64 48
  %38 = load ptr, ptr %37, align 8, !tbaa !64
  %39 = ptrtoint ptr %38 to i64
  %40 = sub i64 %32, %39
  %41 = icmp eq ptr %30, %38
  %42 = shl i64 %40, 1
  %43 = select i1 %41, i64 1024, i64 %42
  %44 = tail call ptr @CRYPTO_realloc(ptr noundef %38, i64 noundef %43, ptr noundef nonnull @.str.42, i32 noundef 262) #12
  %45 = tail call i32 @test_ptr(ptr noundef nonnull @.str.42, i32 noundef 263, ptr noundef nonnull @.str.43, ptr noundef %44) #12
  %.not.i.i6 = icmp eq i32 %45, 0
  br i1 %.not.i.i6, label %openc_fp.exit, label %46

46:                                               ; preds = %36
  %47 = sub i64 %33, %39
  store ptr %44, ptr %37, align 8, !tbaa !64
  %48 = getelementptr inbounds nuw i8, ptr %44, i64 %47
  %49 = getelementptr inbounds nuw i8, ptr %44, i64 %43
  store ptr %49, ptr %4, align 8, !tbaa !62
  br label %openc_alloc_space.exit.i5

openc_alloc_space.exit.i5:                        ; preds = %46, %openc_u64.exit
  %50 = phi ptr [ %48, %46 ], [ %31, %openc_u64.exit ]
  %51 = getelementptr inbounds nuw i8, ptr %50, i64 8
  store ptr %51, ptr %6, align 8, !tbaa !63
  %52 = icmp eq ptr %50, null
  br i1 %52, label %openc_fp.exit, label %53

53:                                               ; preds = %openc_alloc_space.exit.i5
  store ptr %1, ptr %50, align 1
  br label %openc_fp.exit

openc_fp.exit:                                    ; preds = %36, %openc_alloc_space.exit.i5, %53
  %54 = load ptr, ptr %4, align 8, !tbaa !62
  %55 = load ptr, ptr %6, align 8, !tbaa !63
  %56 = ptrtoint ptr %54 to i64
  %57 = ptrtoint ptr %55 to i64
  %58 = sub i64 %56, %57
  %59 = icmp ult i64 %58, 8
  br i1 %59, label %60, label %openc_alloc_space.exit.i7

60:                                               ; preds = %openc_fp.exit
  %61 = getelementptr inbounds nuw i8, ptr %0, i64 48
  %62 = load ptr, ptr %61, align 8, !tbaa !64
  %63 = ptrtoint ptr %62 to i64
  %64 = sub i64 %56, %63
  %65 = icmp eq ptr %54, %62
  %66 = shl i64 %64, 1
  %67 = select i1 %65, i64 1024, i64 %66
  %68 = tail call ptr @CRYPTO_realloc(ptr noundef %62, i64 noundef %67, ptr noundef nonnull @.str.42, i32 noundef 262) #12
  %69 = tail call i32 @test_ptr(ptr noundef nonnull @.str.42, i32 noundef 263, ptr noundef nonnull @.str.43, ptr noundef %68) #12
  %.not.i.i8 = icmp eq i32 %69, 0
  br i1 %.not.i.i8, label %openc_p.exit, label %70

70:                                               ; preds = %60
  %71 = sub i64 %57, %63
  store ptr %68, ptr %61, align 8, !tbaa !64
  %72 = getelementptr inbounds nuw i8, ptr %68, i64 %71
  %73 = getelementptr inbounds nuw i8, ptr %68, i64 %67
  store ptr %73, ptr %4, align 8, !tbaa !62
  br label %openc_alloc_space.exit.i7

openc_alloc_space.exit.i7:                        ; preds = %70, %openc_fp.exit
  %74 = phi ptr [ %72, %70 ], [ %55, %openc_fp.exit ]
  %75 = getelementptr inbounds nuw i8, ptr %74, i64 8
  store ptr %75, ptr %6, align 8, !tbaa !63
  %76 = icmp eq ptr %74, null
  br i1 %76, label %openc_p.exit, label %77

77:                                               ; preds = %openc_alloc_space.exit.i7
  store ptr %2, ptr %74, align 1
  br label %openc_p.exit

openc_p.exit:                                     ; preds = %60, %openc_alloc_space.exit.i7, %77
  ret void
}